target datalayout = "e-m:e-p270:32:32-p271:32:32-p272:64:64-i64:64-i128:128-f80:128-n8:16:32:64-S128"
target triple = "x86_64-pc-linux-gnu"

%struct.RBasic = type { i64, i64 }
%struct.RData = type { %struct.RBasic, ptr, ptr, ptr }
%struct.rb_proc_t = type { %struct.rb_block, i8 }
%struct.rb_block = type { %union.anon.12, i32 }
%union.anon.12 = type { %struct.rb_captured_block }
%struct.rb_captured_block = type { i64, ptr, %union.anon.13 }
%union.anon.13 = type { ptr }
%struct.RArray = type { %struct.RBasic, %union.anon.26 }
%union.anon.26 = type { %struct.anon.27 }
%struct.anon.27 = type { i64, %union.anon.28, ptr }
%union.anon.28 = type { i64 }

@rb_eArgError = external global i64, align 8
@rb_mRubyVMFrozenCore = external global i64, align 8
@ruby_current_ec = external thread_local global ptr, align 8
@.str.71 = private unnamed_addr constant [25 x i8] c"too many arguments (%lu)\00", align 1
@.str.81 = private unnamed_addr constant [21 x i8] c"given block not used\00", align 1

; Function Attrs: nounwind sspstrong uwtable
define internal i64 @proc_to_block_handler(i64 noundef %0) #0 {
  %2 = alloca i64, align 8
  store i64 %0, ptr %2, align 8, !tbaa !7
  %3 = load i64, ptr %2, align 8, !tbaa !7
  %4 = call zeroext i1 @RB_NIL_P(i64 noundef %3) #29
  br i1 %4, label %5, label %6

5:                                                ; preds = %1
  br label %8

6:                                                ; preds = %1
  %7 = load i64, ptr %2, align 8, !tbaa !7
  br label %8

8:                                                ; preds = %6, %5
  %9 = phi i64 [ 0, %5 ], [ %7, %6 ]
  ret i64 %9
}

; Function Attrs: inlinehint nounwind sspstrong uwtable
define internal ptr @rb_current_execution_context(i1 noundef zeroext %0) #3 {
  %2 = alloca i8, align 1
  %3 = alloca ptr, align 8
  %4 = zext i1 %0 to i8
  store i8 %4, ptr %2, align 1, !tbaa !32
  call void @llvm.lifetime.start.p0(i64 8, ptr %3) #25
  %5 = call align 8 ptr @llvm.threadlocal.address.p0(ptr align 8 @ruby_current_ec)
  %6 = load ptr, ptr %5, align 8, !tbaa !19
  store ptr %6, ptr %3, align 8, !tbaa !19
  %7 = load ptr, ptr %3, align 8, !tbaa !19
  call void @llvm.lifetime.end.p0(i64 8, ptr %3) #25
  ret ptr %7
}

; Function Attrs: inlinehint nounwind sspstrong willreturn memory(read) uwtable
define internal i64 @RB_FL_TEST_RAW(i64 noundef %0, i64 noundef %1) #7 {
  %3 = alloca i64, align 8
  %4 = alloca i64, align 8
  store i64 %0, ptr %3, align 8, !tbaa !7
  store i64 %1, ptr %4, align 8, !tbaa !7
  %5 = load i64, ptr %3, align 8, !tbaa !7
  %6 = inttoptr i64 %5 to ptr
  %7 = getelementptr inbounds nuw %struct.RBasic, ptr %6, i32 0, i32 0
  %8 = load i64, ptr %7, align 8, !tbaa !89
  %9 = load i64, ptr %4, align 8, !tbaa !7
  %10 = and i64 %8, %9
  ret i64 %10
}

; Function Attrs: nounwind sspstrong uwtable
define dso_local i64 @rb_proc_call_with_block_kw(i64 noundef %0, i32 noundef %1, ptr noundef %2, i64 noundef %3, i32 noundef %4) #0 {
  %6 = alloca i64, align 8
  %7 = alloca i32, align 4
  %8 = alloca ptr, align 8
  %9 = alloca i64, align 8
  %10 = alloca i32, align 4
  %11 = alloca ptr, align 8
  %12 = alloca i64, align 8
  %13 = alloca ptr, align 8
  %14 = alloca ptr, align 8
  %15 = alloca ptr, align 8
  store i64 %0, ptr %6, align 8, !tbaa !7
  store i32 %1, ptr %7, align 4, !tbaa !36
  store ptr %2, ptr %8, align 8, !tbaa !35
  store i64 %3, ptr %9, align 8, !tbaa !7
  store i32 %4, ptr %10, align 4, !tbaa !36
  call void @llvm.lifetime.start.p0(i64 8, ptr %11) #25
  %16 = call ptr @rb_current_execution_context(i1 noundef zeroext true)
  store ptr %16, ptr %11, align 8, !tbaa !19
  call void @llvm.lifetime.start.p0(i64 8, ptr %12) #25
  call void @llvm.lifetime.start.p0(i64 8, ptr %13) #25
  %17 = load i64, ptr %6, align 8, !tbaa !7
  %18 = inttoptr i64 %17 to ptr
  %19 = getelementptr inbounds nuw %struct.RData, ptr %18, i32 0, i32 3
  %20 = load ptr, ptr %19, align 8, !tbaa !17
  store ptr %20, ptr %13, align 8, !tbaa !11
  %21 = load ptr, ptr %11, align 8, !tbaa !19
  %22 = load ptr, ptr %13, align 8, !tbaa !11
  %23 = load i32, ptr %7, align 4, !tbaa !36
  %24 = load ptr, ptr %8, align 8, !tbaa !35
  %25 = load i32, ptr %10, align 4, !tbaa !36
  %26 = load i64, ptr %9, align 8, !tbaa !7
  %27 = call i64 @proc_to_block_handler(i64 noundef %26)
  %28 = call i64 @rb_vm_invoke_proc(ptr noundef %21, ptr noundef %22, i32 noundef %23, ptr noundef %24, i32 noundef %25, i64 noundef %27)
  store i64 %28, ptr %12, align 8, !tbaa !7
  call void @llvm.lifetime.start.p0(i64 8, ptr %14) #25
  store ptr %6, ptr %14, align 8, !tbaa !35
  call void asm sideeffect "", "*m,~{dirflag},~{fpsr},~{flags}"(ptr elementtype(ptr) %14) #25, !srcloc !47
  %29 = load ptr, ptr %14, align 8, !tbaa !35
  store ptr %29, ptr %15, align 8, !tbaa !35
  call void @llvm.lifetime.end.p0(i64 8, ptr %14) #25
  %30 = load ptr, ptr %15, align 8, !tbaa !35
  %31 = load volatile i64, ptr %30, align 8, !tbaa !7
  %32 = load i64, ptr %12, align 8, !tbaa !7
  call void @llvm.lifetime.end.p0(i64 8, ptr %13) #25
  call void @llvm.lifetime.end.p0(i64 8, ptr %12) #25
  call void @llvm.lifetime.end.p0(i64 8, ptr %11) #25
  ret i64 %32
}

; Function Attrs: nounwind sspstrong uwtable
define dso_local i64 @rb_proc_new(ptr noundef %0, i64 noundef %1) #0 {
  %3 = alloca ptr, align 8
  %4 = alloca i64, align 8
  %5 = alloca i64, align 8
  store ptr %0, ptr %3, align 8, !tbaa !11
  store i64 %1, ptr %4, align 8, !tbaa !7
  call void @llvm.lifetime.start.p0(i64 8, ptr %5) #25
  %6 = load i64, ptr @rb_mRubyVMFrozenCore, align 8, !tbaa !7
  %7 = load ptr, ptr %3, align 8, !tbaa !11
  %8 = load i64, ptr %4, align 8, !tbaa !7
  %9 = call i64 @rb_block_call(i64 noundef %6, i64 noundef 3089, i32 noundef 0, ptr noundef null, ptr noundef %7, i64 noundef %8)
  store i64 %9, ptr %5, align 8, !tbaa !7
  %10 = load i64, ptr %5, align 8, !tbaa !7
  call void @llvm.lifetime.end.p0(i64 8, ptr %5) #25
  ret i64 %10
}

; Function Attrs: inlinehint nounwind sspstrong willreturn memory(read) uwtable
define internal i64 @RARRAY_EMBED_LEN(i64 noundef %0) #7 {
  %2 = alloca i64, align 8
  %3 = alloca i64, align 8
  store i64 %0, ptr %2, align 8, !tbaa !7
  call void @llvm.lifetime.start.p0(i64 8, ptr %3) #25
  %4 = load i64, ptr %2, align 8, !tbaa !7
  %5 = inttoptr i64 %4 to ptr
  %6 = getelementptr inbounds nuw %struct.RBasic, ptr %5, i32 0, i32 0
  %7 = load i64, ptr %6, align 8, !tbaa !89
  store i64 %7, ptr %3, align 8, !tbaa !7
  %8 = load i64, ptr %3, align 8, !tbaa !7
  %9 = and i64 %8, 4161536
  store i64 %9, ptr %3, align 8, !tbaa !7
  %10 = load i64, ptr %3, align 8, !tbaa !7
  %11 = lshr i64 %10, 15
  store i64 %11, ptr %3, align 8, !tbaa !7
  %12 = load i64, ptr %3, align 8, !tbaa !7
  call void @llvm.lifetime.end.p0(i64 8, ptr %3) #25
  ret i64 %12
}

; Function Attrs: inlinehint nounwind sspstrong willreturn memory(read) uwtable
define internal zeroext i1 @RB_FL_ANY_RAW(i64 noundef %0, i64 noundef %1) #7 {
  %3 = alloca i64, align 8
  %4 = alloca i64, align 8
  store i64 %0, ptr %3, align 8, !tbaa !7
  store i64 %1, ptr %4, align 8, !tbaa !7
  %5 = load i64, ptr %3, align 8, !tbaa !7
  %6 = load i64, ptr %4, align 8, !tbaa !7
  %7 = call i64 @RB_FL_TEST_RAW(i64 noundef %5, i64 noundef %6) #28
  %8 = icmp ne i64 %7, 0
  ret i1 %8
}

; Function Attrs: nounwind sspstrong uwtable
define dso_local i64 @rb_proc_call_with_block(i64 noundef %0, i32 noundef %1, ptr noundef %2, i64 noundef %3) #0 {
  %5 = alloca i64, align 8
  %6 = alloca i32, align 4
  %7 = alloca ptr, align 8
  %8 = alloca i64, align 8
  store i64 %0, ptr %5, align 8, !tbaa !7
  store i32 %1, ptr %6, align 4, !tbaa !36
  store ptr %2, ptr %7, align 8, !tbaa !35
  store i64 %3, ptr %8, align 8, !tbaa !7
  %9 = load i64, ptr %5, align 8, !tbaa !7
  %10 = load i32, ptr %6, align 4, !tbaa !36
  %11 = load ptr, ptr %7, align 8, !tbaa !35
  %12 = load i64, ptr %8, align 8, !tbaa !7
  %13 = call i64 @rb_proc_call_with_block_kw(i64 noundef %9, i32 noundef %10, ptr noundef %11, i64 noundef %12, i32 noundef 0)
  ret i64 %13
}

; Function Attrs: inlinehint nounwind sspstrong willreturn memory(read) uwtable
define internal ptr @rb_array_const_ptr(i64 noundef %0) #7 {
  %2 = alloca ptr, align 8
  %3 = alloca i64, align 8
  store i64 %0, ptr %3, align 8, !tbaa !7
  %4 = load i64, ptr %3, align 8, !tbaa !7
  %5 = call zeroext i1 @RB_FL_ANY_RAW(i64 noundef %4, i64 noundef 8192) #28
  br i1 %5, label %6, label %11

6:                                                ; preds = %1
  %7 = load i64, ptr %3, align 8, !tbaa !7
  %8 = inttoptr i64 %7 to ptr
  %9 = getelementptr inbounds nuw %struct.RArray, ptr %8, i32 0, i32 1
  %10 = getelementptr inbounds [1 x i64], ptr %9, i64 0, i64 0
  store ptr %10, ptr %2, align 8
  br label %17

11:                                               ; preds = %1
  %12 = load i64, ptr %3, align 8, !tbaa !7
  %13 = inttoptr i64 %12 to ptr
  %14 = getelementptr inbounds nuw %struct.RArray, ptr %13, i32 0, i32 1
  %15 = getelementptr inbounds nuw %struct.anon.27, ptr %14, i32 0, i32 2
  %16 = load ptr, ptr %15, align 8, !tbaa !34
  store ptr %16, ptr %2, align 8
  br label %17

17:                                               ; preds = %11, %6
  %18 = load ptr, ptr %2, align 8
  ret ptr %18
}

; Function Attrs: inlinehint nounwind sspstrong uwtable
define internal i32 @check_argc(i64 noundef %0) #3 {
  %2 = alloca i64, align 8
  store i64 %0, ptr %2, align 8, !tbaa !7
  %3 = load i64, ptr %2, align 8, !tbaa !7
  %4 = icmp sgt i64 %3, 2147483647
  br i1 %4, label %8, label %5

5:                                                ; preds = %1
  %6 = load i64, ptr %2, align 8, !tbaa !7
  %7 = icmp slt i64 %6, 0
  br i1 %7, label %8, label %11

8:                                                ; preds = %5, %1
  %9 = load i64, ptr @rb_eArgError, align 8, !tbaa !7
  %10 = load i64, ptr %2, align 8, !tbaa !7
  call void (i64, ptr, ...) @rb_raise(i64 noundef %9, ptr noundef @.str.71, i64 noundef %10) #27
  unreachable

11:                                               ; preds = %5
  %12 = load i64, ptr %2, align 8, !tbaa !7
  %13 = trunc i64 %12 to i32
  ret i32 %13
}

; Function Attrs: nounwind sspstrong uwtable
define internal i64 @make_curry_proc(i64 noundef %0, i64 noundef %1, i64 noundef %2) #0 {
  %4 = alloca i64, align 8
  %5 = alloca i64, align 8
  %6 = alloca i64, align 8
  %7 = alloca i64, align 8
  %8 = alloca ptr, align 8
  %9 = alloca i32, align 4
  store i64 %0, ptr %4, align 8, !tbaa !7
  store i64 %1, ptr %5, align 8, !tbaa !7
  store i64 %2, ptr %6, align 8, !tbaa !7
  call void @llvm.lifetime.start.p0(i64 8, ptr %7) #25
  %10 = load i64, ptr %4, align 8, !tbaa !7
  %11 = load i64, ptr %5, align 8, !tbaa !7
  %12 = load i64, ptr %6, align 8, !tbaa !7
  %13 = call i64 (i64, ...) @rb_ary_new_from_args(i64 noundef 3, i64 noundef %10, i64 noundef %11, i64 noundef %12)
  store i64 %13, ptr %7, align 8, !tbaa !7
  call void @llvm.lifetime.start.p0(i64 8, ptr %8) #25
  call void @llvm.lifetime.start.p0(i64 4, ptr %9) #25
  %14 = load i64, ptr %4, align 8, !tbaa !7
  %15 = inttoptr i64 %14 to ptr
  %16 = getelementptr inbounds nuw %struct.RData, ptr %15, i32 0, i32 3
  %17 = load ptr, ptr %16, align 8, !tbaa !17
  store ptr %17, ptr %8, align 8, !tbaa !11
  %18 = load ptr, ptr %8, align 8, !tbaa !11
  %19 = getelementptr inbounds nuw %struct.rb_proc_t, ptr %18, i32 0, i32 1
  %20 = load i8, ptr %19, align 8
  %21 = lshr i8 %20, 1
  %22 = and i8 %21, 1
  %23 = zext i8 %22 to i32
  store i32 %23, ptr %9, align 4, !tbaa !36
  %24 = load i64, ptr %5, align 8, !tbaa !7
  %25 = call i64 @rb_ary_freeze(i64 noundef %24)
  %26 = load i64, ptr %7, align 8, !tbaa !7
  %27 = call i64 @rb_ary_freeze(i64 noundef %26)
  %28 = load i64, ptr %7, align 8, !tbaa !7
  %29 = call i64 @rb_proc_new(ptr noundef @curry, i64 noundef %28)
  store i64 %29, ptr %4, align 8, !tbaa !7
  %30 = load i64, ptr %4, align 8, !tbaa !7
  %31 = inttoptr i64 %30 to ptr
  %32 = getelementptr inbounds nuw %struct.RData, ptr %31, i32 0, i32 3
  %33 = load ptr, ptr %32, align 8, !tbaa !17
  store ptr %33, ptr %8, align 8, !tbaa !11
  %34 = load i32, ptr %9, align 4, !tbaa !36
  %35 = load ptr, ptr %8, align 8, !tbaa !11
  %36 = getelementptr inbounds nuw %struct.rb_proc_t, ptr %35, i32 0, i32 1
  %37 = trunc i32 %34 to i8
  %38 = load i8, ptr %36, align 8
  %39 = and i8 %37, 1
  %40 = shl i8 %39, 1
  %41 = and i8 %38, -3
  %42 = or i8 %41, %40
  store i8 %42, ptr %36, align 8
  %43 = load i64, ptr %4, align 8, !tbaa !7
  call void @llvm.lifetime.end.p0(i64 4, ptr %9) #25
  call void @llvm.lifetime.end.p0(i64 8, ptr %8) #25
  call void @llvm.lifetime.end.p0(i64 8, ptr %7) #25
  ret i64 %43
}

; Function Attrs: inlinehint nounwind sspstrong willreturn memory(none) uwtable
define internal zeroext i1 @RB_NIL_P(i64 noundef %0) #12 {
  %2 = alloca i64, align 8
  store i64 %0, ptr %2, align 8, !tbaa !7
  %3 = load i64, ptr %2, align 8, !tbaa !7
  %4 = icmp eq i64 %3, 4
  ret i1 %4
}

; Function Attrs: inlinehint nounwind sspstrong uwtable
define internal i32 @RB_FIX2INT(i64 noundef %0) #3 {
  %2 = alloca i64, align 8
  %3 = alloca i64, align 8
  store i64 %0, ptr %2, align 8, !tbaa !7
  call void @llvm.lifetime.start.p0(i64 8, ptr %3) #25
  %4 = load i64, ptr %2, align 8, !tbaa !7
  %5 = call i64 @rb_fix2int(i64 noundef %4)
  store i64 %5, ptr %3, align 8, !tbaa !7
  %6 = load i64, ptr %3, align 8, !tbaa !7
  %7 = trunc i64 %6 to i32
  call void @llvm.lifetime.end.p0(i64 8, ptr %3) #25
  ret i32 %7
}

; Function Attrs: inlinehint nounwind sspstrong willreturn memory(read) uwtable
define internal i64 @rb_array_len(i64 noundef %0) #7 {
  %2 = alloca i64, align 8
  %3 = alloca i64, align 8
  store i64 %0, ptr %3, align 8, !tbaa !7
  %4 = load i64, ptr %3, align 8, !tbaa !7
  %5 = call zeroext i1 @RB_FL_ANY_RAW(i64 noundef %4, i64 noundef 8192) #28
  br i1 %5, label %6, label %9

6:                                                ; preds = %1
  %7 = load i64, ptr %3, align 8, !tbaa !7
  %8 = call i64 @RARRAY_EMBED_LEN(i64 noundef %7) #28
  store i64 %8, ptr %2, align 8
  br label %15

9:                                                ; preds = %1
  %10 = load i64, ptr %3, align 8, !tbaa !7
  %11 = inttoptr i64 %10 to ptr
  %12 = getelementptr inbounds nuw %struct.RArray, ptr %11, i32 0, i32 1
  %13 = getelementptr inbounds nuw %struct.anon.27, ptr %12, i32 0, i32 0
  %14 = load i64, ptr %13, align 8, !tbaa !34
  store i64 %14, ptr %2, align 8
  br label %15

15:                                               ; preds = %9, %6
  %16 = load i64, ptr %2, align 8
  ret i64 %16
}

; Function Attrs: inlinehint nounwind sspstrong willreturn memory(read) uwtable
define internal i64 @RARRAY_AREF(i64 noundef %0, i64 noundef %1) #7 {
  %3 = alloca i64, align 8
  %4 = alloca i64, align 8
  %5 = alloca i64, align 8
  store i64 %0, ptr %3, align 8, !tbaa !7
  store i64 %1, ptr %4, align 8, !tbaa !7
  call void @llvm.lifetime.start.p0(i64 8, ptr %5) #25
  %6 = load i64, ptr %3, align 8, !tbaa !7
  %7 = call ptr @rb_array_const_ptr(i64 noundef %6) #28
  %8 = load i64, ptr %4, align 8, !tbaa !7
  %9 = getelementptr i64, ptr %7, i64 %8
  %10 = load i64, ptr %9, align 8, !tbaa !7
  store i64 %10, ptr %5, align 8, !tbaa !7
  %11 = load i64, ptr %5, align 8, !tbaa !7
  call void @llvm.lifetime.end.p0(i64 8, ptr %5) #25
  ret i64 %11
}

; Function Attrs: nounwind sspstrong uwtable
define internal i64 @curry(i64 noundef %0, i64 noundef %1, i32 noundef %2, ptr noundef %3, i64 noundef %4) #0 {
  %6 = alloca i64, align 8
  %7 = alloca i64, align 8
  %8 = alloca i64, align 8
  %9 = alloca i32, align 4
  %10 = alloca ptr, align 8
  %11 = alloca i64, align 8
  %12 = alloca i64, align 8
  %13 = alloca i64, align 8
  %14 = alloca i64, align 8
  %15 = alloca i32, align 4
  store i64 %0, ptr %7, align 8, !tbaa !7
  store i64 %1, ptr %8, align 8, !tbaa !7
  store i32 %2, ptr %9, align 4, !tbaa !36
  store ptr %3, ptr %10, align 8, !tbaa !35
  store i64 %4, ptr %11, align 8, !tbaa !7
  call void @llvm.lifetime.start.p0(i64 8, ptr %12) #25
  call void @llvm.lifetime.start.p0(i64 8, ptr %13) #25
  call void @llvm.lifetime.start.p0(i64 8, ptr %14) #25
  %16 = load i64, ptr %8, align 8, !tbaa !7
  %17 = call i64 @RARRAY_AREF(i64 noundef %16, i64 noundef 0) #28
  store i64 %17, ptr %12, align 8, !tbaa !7
  %18 = load i64, ptr %8, align 8, !tbaa !7
  %19 = call i64 @RARRAY_AREF(i64 noundef %18, i64 noundef 1) #28
  store i64 %19, ptr %13, align 8, !tbaa !7
  %20 = load i64, ptr %8, align 8, !tbaa !7
  %21 = call i64 @RARRAY_AREF(i64 noundef %20, i64 noundef 2) #28
  store i64 %21, ptr %14, align 8, !tbaa !7
  %22 = load i64, ptr %13, align 8, !tbaa !7
  %23 = load i32, ptr %9, align 4, !tbaa !36
  %24 = sext i32 %23 to i64
  %25 = load ptr, ptr %10, align 8, !tbaa !35
  %26 = call i64 @rb_ary_new_from_values(i64 noundef %24, ptr noundef %25)
  %27 = call i64 @rb_ary_plus(i64 noundef %22, i64 noundef %26)
  store i64 %27, ptr %13, align 8, !tbaa !7
  %28 = load i64, ptr %13, align 8, !tbaa !7
  %29 = call i64 @rb_ary_freeze(i64 noundef %28)
  %30 = load i64, ptr %13, align 8, !tbaa !7
  %31 = call i64 @rb_array_len(i64 noundef %30) #28
  %32 = load i64, ptr %14, align 8, !tbaa !7
  %33 = call i32 @RB_FIX2INT(i64 noundef %32)
  %34 = sext i32 %33 to i64
  %35 = icmp slt i64 %31, %34
  br i1 %35, label %36, label %46

36:                                               ; preds = %5
  %37 = load i64, ptr %11, align 8, !tbaa !7
  %38 = call zeroext i1 @RB_NIL_P(i64 noundef %37) #29
  br i1 %38, label %40, label %39

39:                                               ; preds = %36
  call void (ptr, ...) @rb_warn(ptr noundef @.str.81) #31
  br label %40

40:                                               ; preds = %39, %36
  %41 = load i64, ptr %12, align 8, !tbaa !7
  %42 = load i64, ptr %13, align 8, !tbaa !7
  %43 = load i64, ptr %14, align 8, !tbaa !7
  %44 = call i64 @make_curry_proc(i64 noundef %41, i64 noundef %42, i64 noundef %43)
  store i64 %44, ptr %14, align 8, !tbaa !7
  %45 = load i64, ptr %14, align 8, !tbaa !7
  store i64 %45, ptr %6, align 8
  store i32 1, ptr %15, align 4
  br label %55

46:                                               ; preds = %5
  %47 = load i64, ptr %12, align 8, !tbaa !7
  %48 = load i64, ptr %13, align 8, !tbaa !7
  %49 = call i64 @rb_array_len(i64 noundef %48) #28
  %50 = call i32 @check_argc(i64 noundef %49)
  %51 = load i64, ptr %13, align 8, !tbaa !7
  %52 = call ptr @rb_array_const_ptr(i64 noundef %51) #28
  %53 = load i64, ptr %11, align 8, !tbaa !7
  %54 = call i64 @rb_proc_call_with_block(i64 noundef %47, i32 noundef %50, ptr noundef %52, i64 noundef %53)
  store i64 %54, ptr %6, align 8
  store i32 1, ptr %15, align 4
  br label %55

55:                                               ; preds = %46, %40
  call void @llvm.lifetime.end.p0(i64 8, ptr %14) #25
  call void @llvm.lifetime.end.p0(i64 8, ptr %13) #25
  call void @llvm.lifetime.end.p0(i64 8, ptr %12) #25
  %56 = load i64, ptr %6, align 8
  ret i64 %56
}