; Function Attrs: nounwind sspstrong uwtable
define internal i64 @curry(i64 %0, i64 noundef %1, i32 noundef %2, ptr noundef %3, i64 noundef %4) #0 {
  %6 = alloca i64, align 8
  %7 = alloca ptr, align 8
  %8 = inttoptr i64 %1 to ptr
  %9 = load i64, ptr %8, align 8, !tbaa !42
  %10 = and i64 %9, 8192
  %.not.i.i = icmp eq i64 %10, 0
  br i1 %.not.i.i, label %14, label %11

11:                                               ; preds = %5
  %12 = getelementptr inbounds nuw i8, ptr %8, i64 16
  %13 = getelementptr i8, ptr %8, i64 24
  br label %RARRAY_AREF.exit23

14:                                               ; preds = %5
  %15 = getelementptr inbounds nuw i8, ptr %8, i64 32
  %16 = load ptr, ptr %15, align 8, !tbaa !35
  %17 = getelementptr i8, ptr %16, i64 8
  br label %RARRAY_AREF.exit23

RARRAY_AREF.exit23:                               ; preds = %11, %14
  %.in = phi ptr [ %13, %11 ], [ %17, %14 ]
  %.in35 = phi ptr [ %12, %11 ], [ %16, %14 ]
  %18 = load i64, ptr %.in35, align 8, !tbaa !36
  %19 = load i64, ptr %.in, align 8, !tbaa !36
  %20 = getelementptr i8, ptr %.in35, i64 16
  %21 = load i64, ptr %20, align 8, !tbaa !36
  %22 = sext i32 %2 to i64
  %23 = tail call i64 @rb_ary_new_from_values(i64 noundef %22, ptr noundef %3) #21
  %24 = tail call i64 @rb_ary_plus(i64 noundef %19, i64 noundef %23) #21
  %25 = tail call i64 @rb_ary_freeze(i64 noundef %24) #21
  %26 = inttoptr i64 %24 to ptr
  %27 = load i64, ptr %26, align 8, !tbaa !42
  %28 = and i64 %27, 8192
  %.not.i = icmp eq i64 %28, 0
  br i1 %.not.i, label %32, label %29

29:                                               ; preds = %RARRAY_AREF.exit23
  %30 = lshr i64 %27, 15
  %31 = and i64 %30, 127
  br label %rb_array_len.exit

32:                                               ; preds = %RARRAY_AREF.exit23
  %33 = getelementptr inbounds nuw i8, ptr %26, i64 16
  %34 = load i64, ptr %33, align 8, !tbaa !35
  br label %rb_array_len.exit

rb_array_len.exit:                                ; preds = %29, %32
  %.0.i = phi i64 [ %31, %29 ], [ %34, %32 ]
  %35 = tail call i64 @rb_fix2int(i64 noundef %21) #21
  %sext = shl i64 %35, 32
  %36 = ashr exact i64 %sext, 32
  %37 = icmp slt i64 %.0.i, %36
  br i1 %37, label %38, label %60

38:                                               ; preds = %rb_array_len.exit
  %39 = icmp eq i64 %4, 4
  br i1 %39, label %41, label %40

40:                                               ; preds = %38
  tail call void (ptr, ...) @rb_warn(ptr noundef nonnull @.str.81) #28
  br label %41

41:                                               ; preds = %40, %38
  %42 = tail call i64 (i64, ...) @rb_ary_new_from_args(i64 noundef 3, i64 noundef %18, i64 noundef %24, i64 noundef %21) #21
  %43 = inttoptr i64 %18 to ptr
  %44 = getelementptr inbounds nuw i8, ptr %43, i64 32
  %45 = load ptr, ptr %44, align 8, !tbaa !7
  %46 = getelementptr inbounds nuw i8, ptr %45, i64 32
  %47 = load i8, ptr %46, align 8
  %48 = and i8 %47, 2
  %49 = tail call i64 @rb_ary_freeze(i64 noundef %24) #21
  %50 = tail call i64 @rb_ary_freeze(i64 noundef %42) #21
  %51 = load i64, ptr @rb_mRubyVMFrozenCore, align 8, !tbaa !36
  %52 = tail call i64 @rb_block_call(i64 noundef %51, i64 noundef 3089, i32 noundef 0, ptr noundef null, ptr noundef nonnull @curry, i64 noundef %42) #21
  %53 = inttoptr i64 %52 to ptr
  %54 = getelementptr inbounds nuw i8, ptr %53, i64 32
  %55 = load ptr, ptr %54, align 8, !tbaa !7
  %56 = getelementptr inbounds nuw i8, ptr %55, i64 32
  %57 = load i8, ptr %56, align 8
  %58 = and i8 %57, -3
  %59 = or disjoint i8 %58, %48
  store i8 %59, ptr %56, align 8
  br label %87

60:                                               ; preds = %rb_array_len.exit
  %61 = load i64, ptr %26, align 8, !tbaa !42
  %62 = and i64 %61, 8192
  %.not.i24 = icmp eq i64 %62, 0
  br i1 %.not.i24, label %rb_array_len.exit26, label %67

rb_array_len.exit26:                              ; preds = %60
  %63 = getelementptr inbounds nuw i8, ptr %26, i64 16
  %64 = load i64, ptr %63, align 8, !tbaa !35
  %or.cond.i = icmp ugt i64 %64, 2147483647
  br i1 %or.cond.i, label %65, label %72

65:                                               ; preds = %rb_array_len.exit26
  %66 = load i64, ptr @rb_eArgError, align 8, !tbaa !36
  tail call void (i64, ptr, ...) @rb_raise(i64 noundef %66, ptr noundef nonnull @.str.71, i64 noundef %64) #22
  unreachable

67:                                               ; preds = %60
  %68 = trunc i64 %61 to i32
  %69 = lshr i32 %68, 15
  %70 = and i32 %69, 127
  %71 = getelementptr inbounds nuw i8, ptr %26, i64 16
  br label %rb_array_const_ptr.exit

72:                                               ; preds = %rb_array_len.exit26
  %73 = trunc nuw nsw i64 %64 to i32
  %74 = getelementptr inbounds nuw i8, ptr %26, i64 32
  %75 = load ptr, ptr %74, align 8, !tbaa !35
  br label %rb_array_const_ptr.exit

rb_array_const_ptr.exit:                          ; preds = %67, %72
  %76 = phi i32 [ %70, %67 ], [ %73, %72 ]
  %.0.i28 = phi ptr [ %71, %67 ], [ %75, %72 ]
  call void @llvm.lifetime.start.p0(i64 8, ptr nonnull %6)
  store i64 %18, ptr %6, align 8, !tbaa !36
  %77 = tail call align 8 ptr @llvm.threadlocal.address.p0(ptr align 8 @ruby_current_ec)
  %78 = load ptr, ptr %77, align 8, !tbaa !20
  %79 = inttoptr i64 %18 to ptr
  %80 = getelementptr inbounds nuw i8, ptr %79, i64 32
  %81 = load ptr, ptr %80, align 8, !tbaa !7
  %82 = icmp eq i64 %4, 4
  %83 = select i1 %82, i64 0, i64 %4
  %84 = tail call i64 @rb_vm_invoke_proc(ptr noundef %78, ptr noundef %81, i32 noundef %76, ptr noundef %.0.i28, i32 noundef 0, i64 noundef %83) #21
  call void @llvm.lifetime.start.p0(i64 8, ptr nonnull %7) #21
  store ptr %6, ptr %7, align 8, !tbaa !44
  call void asm sideeffect "", "*m,~{dirflag},~{fpsr},~{flags}"(ptr nonnull elementtype(ptr) %7) #21, !srcloc !47
  %85 = load ptr, ptr %7, align 8, !tbaa !44
  call void @llvm.lifetime.end.p0(i64 8, ptr nonnull %7) #21
  %86 = load volatile i64, ptr %85, align 8, !tbaa !36
  call void @llvm.lifetime.end.p0(i64 8, ptr nonnull %6)
  br label %87

87:                                               ; preds = %rb_array_const_ptr.exit, %41
  %.0 = phi i64 [ %52, %41 ], [ %84, %rb_array_const_ptr.exit ]
  ret i64 %.0
}